; Function Attrs: mustprogress nofree norecurse nosync nounwind willreturn memory(readwrite, inaccessiblemem: none) uwtable
define internal fastcc void @set_guc_source(ptr noundef %0, i32 noundef %1) unnamed_addr #5 {
  %3 = getelementptr inbounds nuw i8, ptr %0, i64 44
  %4 = load i32, ptr %3, align 4
  %5 = icmp eq i32 %4, 0
  %.not = icmp eq i32 %1, 0
  br i1 %5, label %6, label %15

6:                                                ; preds = %2
  br i1 %.not, label %23, label %7

7:                                                ; preds = %6
  %8 = getelementptr inbounds nuw i8, ptr %0, i64 88
  %9 = load ptr, ptr getelementptr inbounds nuw (i8, ptr @guc_nondef_list, i64 8), align 8
  %10 = icmp eq ptr %9, null
  br i1 %10, label %11, label %._crit_edge.i

._crit_edge.i:                                    ; preds = %7
  %.pre.i = load ptr, ptr @guc_nondef_list, align 8
  br label %dlist_push_tail.exit

11:                                               ; preds = %7
  store ptr @guc_nondef_list, ptr getelementptr inbounds nuw (i8, ptr @guc_nondef_list, i64 8), align 8
  br label %dlist_push_tail.exit

dlist_push_tail.exit:                             ; preds = %._crit_edge.i, %11
  %12 = phi ptr [ %.pre.i, %._crit_edge.i ], [ @guc_nondef_list, %11 ]
  %13 = getelementptr inbounds nuw i8, ptr %0, i64 96
  store ptr @guc_nondef_list, ptr %13, align 8
  store ptr %12, ptr %8, align 8
  %14 = getelementptr inbounds nuw i8, ptr %12, i64 8
  store ptr %8, ptr %14, align 8
  store ptr %8, ptr @guc_nondef_list, align 8
  br label %23

15:                                               ; preds = %2
  br i1 %.not, label %16, label %23

16:                                               ; preds = %15
  %17 = getelementptr inbounds nuw i8, ptr %0, i64 88
  %18 = getelementptr inbounds nuw i8, ptr %0, i64 96
  %19 = load ptr, ptr %18, align 8
  %20 = load ptr, ptr %17, align 8
  %21 = getelementptr inbounds nuw i8, ptr %20, i64 8
  store ptr %19, ptr %21, align 8
  %22 = load ptr, ptr %17, align 8
  store ptr %22, ptr %19, align 8
  br label %23

23:                                               ; preds = %15, %16, %6, %dlist_push_tail.exit
  store i32 %1, ptr %3, align 4
  ret void
}